; Function Attrs: nounwind uwtable
define dso_local void @pgstat_wal_snapshot_cb() local_unnamed_addr #0 {
  %1 = load ptr, ptr @pgStatLocal, align 8
  %2 = getelementptr inbounds nuw i8, ptr %1, i64 50384
  %3 = tail call zeroext i1 @LWLockAcquire(ptr noundef nonnull %2, i32 noundef 1) #7
  %4 = getelementptr inbounds nuw i8, ptr %1, i64 50400
  tail call void @llvm.memcpy.p0.p0.i64(ptr noundef nonnull align 8 dereferenceable(72) getelementptr inbounds nuw (i8, ptr @pgStatLocal, i64 49792), ptr noundef nonnull align 8 dereferenceable(72) %4, i64 72, i1 false)
  tail call void @LWLockRelease(ptr noundef nonnull %2) #7
  ret void
}